; ModuleID = '9/614.c'
source_filename = "9/614.c"
target datalayout = "e-m:e-p270:32:32-p271:32:32-p272:64:64-i64:64-f80:128-n8:16:32:64-S128"
target triple = "x86_64-pc-linux-gnu"

@.str = private unnamed_addr constant [3 x i8] c"%d\00", align 1
@.str.1 = private unnamed_addr constant [6 x i8] c"%s %d\00", align 1
@.str.2 = private unnamed_addr constant [4 x i8] c"%s\0A\00", align 1

; Function Attrs: noinline nounwind uwtable
define dso_local i32 @main() #0 {
  %1 = alloca i32, align 4
  %2 = alloca i32, align 4
  %3 = alloca i32, align 4
  %4 = alloca i32, align 4
  %5 = alloca [100 x i32], align 16
  %6 = alloca [100 x i32], align 16
  %7 = alloca i32, align 4
  %8 = alloca [100 x [100 x i8]], align 16
  %9 = alloca [100 x [100 x i8]], align 16
  %10 = alloca [100 x [100 x i8]], align 16
  %11 = alloca [100 x [100 x i8]], align 16
  %12 = alloca [100 x i32], align 16
  %13 = alloca i32, align 4
  %14 = alloca i32, align 4
  %15 = alloca i32, align 4
  %16 = alloca i32, align 4
  %17 = alloca i32, align 4
  %18 = alloca i32, align 4
  store i32 0, i32* %1, align 4
  store i32 0, i32* %3, align 4
  store i32 0, i32* %4, align 4
  %19 = bitcast [100 x [100 x i8]]* %8 to i8*
  call void @llvm.memset.p0i8.i64(i8* align 16 %19, i8 0, i64 10000, i1 false)
  %20 = bitcast [100 x [100 x i8]]* %9 to i8*
  call void @llvm.memset.p0i8.i64(i8* align 16 %20, i8 0, i64 10000, i1 false)
  %21 = bitcast [100 x [100 x i8]]* %10 to i8*
  call void @llvm.memset.p0i8.i64(i8* align 16 %21, i8 0, i64 10000, i1 false)
  %22 = bitcast [100 x [100 x i8]]* %11 to i8*
  call void @llvm.memset.p0i8.i64(i8* align 16 %22, i8 0, i64 10000, i1 false)
  %23 = call i32 (i8*, ...) @__isoc99_scanf(i8* getelementptr inbounds ([3 x i8], [3 x i8]* @.str, i64 0, i64 0), i32* %2)
  store i32 0, i32* %13, align 4
  br label %24

24:                                               ; preds = %37, %0
  %25 = load i32, i32* %13, align 4
  %26 = load i32, i32* %2, align 4
  %27 = icmp slt i32 %25, %26
  br i1 %27, label %28, label %40

28:                                               ; preds = %24
  %29 = load i32, i32* %13, align 4
  %30 = sext i32 %29 to i64
  %31 = getelementptr inbounds [100 x [100 x i8]], [100 x [100 x i8]]* %10, i64 0, i64 %30
  %32 = getelementptr inbounds [100 x i8], [100 x i8]* %31, i64 0, i64 0
  %33 = load i32, i32* %13, align 4
  %34 = sext i32 %33 to i64
  %35 = getelementptr inbounds [100 x i32], [100 x i32]* %12, i64 0, i64 %34
  %36 = call i32 (i8*, ...) @__isoc99_scanf(i8* getelementptr inbounds ([6 x i8], [6 x i8]* @.str.1, i64 0, i64 0), i8* %32, i32* %35)
  br label %37

37:                                               ; preds = %28
  %38 = load i32, i32* %13, align 4
  %39 = add nsw i32 %38, 1
  store i32 %39, i32* %13, align 4
  br label %24

40:                                               ; preds = %24
  store i32 0, i32* %14, align 4
  br label %41

41:                                               ; preds = %94, %40
  %42 = load i32, i32* %14, align 4
  %43 = load i32, i32* %2, align 4
  %44 = icmp slt i32 %42, %43
  br i1 %44, label %45, label %97

45:                                               ; preds = %41
  %46 = load i32, i32* %14, align 4
  %47 = sext i32 %46 to i64
  %48 = getelementptr inbounds [100 x i32], [100 x i32]* %12, i64 0, i64 %47
  %49 = load i32, i32* %48, align 4
  %50 = icmp sge i32 %49, 60
  br i1 %50, label %51, label %72

51:                                               ; preds = %45
  %52 = load i32, i32* %3, align 4
  %53 = add nsw i32 %52, 1
  store i32 %53, i32* %3, align 4
  %54 = load i32, i32* %14, align 4
  %55 = sext i32 %54 to i64
  %56 = getelementptr inbounds [100 x i32], [100 x i32]* %12, i64 0, i64 %55
  %57 = load i32, i32* %56, align 4
  %58 = load i32, i32* %3, align 4
  %59 = sub nsw i32 %58, 1
  %60 = sext i32 %59 to i64
  %61 = getelementptr inbounds [100 x i32], [100 x i32]* %5, i64 0, i64 %60
  store i32 %57, i32* %61, align 4
  %62 = load i32, i32* %3, align 4
  %63 = sub nsw i32 %62, 1
  %64 = sext i32 %63 to i64
  %65 = getelementptr inbounds [100 x [100 x i8]], [100 x [100 x i8]]* %8, i64 0, i64 %64
  %66 = getelementptr inbounds [100 x i8], [100 x i8]* %65, i64 0, i64 0
  %67 = load i32, i32* %14, align 4
  %68 = sext i32 %67 to i64
  %69 = getelementptr inbounds [100 x [100 x i8]], [100 x [100 x i8]]* %10, i64 0, i64 %68
  %70 = getelementptr inbounds [100 x i8], [100 x i8]* %69, i64 0, i64 0
  %71 = call i8* @strcpy(i8* %66, i8* %70) #4
  br label %93

72:                                               ; preds = %45
  %73 = load i32, i32* %4, align 4
  %74 = add nsw i32 %73, 1
  store i32 %74, i32* %4, align 4
  %75 = load i32, i32* %14, align 4
  %76 = sext i32 %75 to i64
  %77 = getelementptr inbounds [100 x i32], [100 x i32]* %12, i64 0, i64 %76
  %78 = load i32, i32* %77, align 4
  %79 = load i32, i32* %4, align 4
  %80 = sub nsw i32 %79, 1
  %81 = sext i32 %80 to i64
  %82 = getelementptr inbounds [100 x i32], [100 x i32]* %6, i64 0, i64 %81
  store i32 %78, i32* %82, align 4
  %83 = load i32, i32* %4, align 4
  %84 = sub nsw i32 %83, 1
  %85 = sext i32 %84 to i64
  %86 = getelementptr inbounds [100 x [100 x i8]], [100 x [100 x i8]]* %9, i64 0, i64 %85
  %87 = getelementptr inbounds [100 x i8], [100 x i8]* %86, i64 0, i64 0
  %88 = load i32, i32* %14, align 4
  %89 = sext i32 %88 to i64
  %90 = getelementptr inbounds [100 x [100 x i8]], [100 x [100 x i8]]* %10, i64 0, i64 %89
  %91 = getelementptr inbounds [100 x i8], [100 x i8]* %90, i64 0, i64 0
  %92 = call i8* @strcpy(i8* %87, i8* %91) #4
  br label %93

93:                                               ; preds = %72, %51
  br label %94

94:                                               ; preds = %93
  %95 = load i32, i32* %14, align 4
  %96 = add nsw i32 %95, 1
  store i32 %96, i32* %14, align 4
  br label %41

97:                                               ; preds = %41
  store i32 0, i32* %15, align 4
  br label %98

98:                                               ; preds = %174, %97
  %99 = load i32, i32* %15, align 4
  %100 = load i32, i32* %3, align 4
  %101 = sub nsw i32 %100, 1
  %102 = icmp slt i32 %99, %101
  br i1 %102, label %103, label %177

103:                                              ; preds = %98
  store i32 0, i32* %16, align 4
  br label %104

104:                                              ; preds = %170, %103
  %105 = load i32, i32* %16, align 4
  %106 = load i32, i32* %3, align 4
  %107 = sub nsw i32 %106, 1
  %108 = load i32, i32* %15, align 4
  %109 = sub nsw i32 %107, %108
  %110 = icmp slt i32 %105, %109
  br i1 %110, label %111, label %173

111:                                              ; preds = %104
  %112 = load i32, i32* %16, align 4
  %113 = sext i32 %112 to i64
  %114 = getelementptr inbounds [100 x i32], [100 x i32]* %5, i64 0, i64 %113
  %115 = load i32, i32* %114, align 4
  %116 = load i32, i32* %16, align 4
  %117 = add nsw i32 %116, 1
  %118 = sext i32 %117 to i64
  %119 = getelementptr inbounds [100 x i32], [100 x i32]* %5, i64 0, i64 %118
  %120 = load i32, i32* %119, align 4
  %121 = icmp slt i32 %115, %120
  br i1 %121, label %122, label %169

122:                                              ; preds = %111
  %123 = load i32, i32* %16, align 4
  %124 = sext i32 %123 to i64
  %125 = getelementptr inbounds [100 x i32], [100 x i32]* %5, i64 0, i64 %124
  %126 = load i32, i32* %125, align 4
  store i32 %126, i32* %7, align 4
  %127 = load i32, i32* %16, align 4
  %128 = sext i32 %127 to i64
  %129 = getelementptr inbounds [100 x [100 x i8]], [100 x [100 x i8]]* %11, i64 0, i64 %128
  %130 = getelementptr inbounds [100 x i8], [100 x i8]* %129, i64 0, i64 0
  %131 = load i32, i32* %16, align 4
  %132 = sext i32 %131 to i64
  %133 = getelementptr inbounds [100 x [100 x i8]], [100 x [100 x i8]]* %8, i64 0, i64 %132
  %134 = getelementptr inbounds [100 x i8], [100 x i8]* %133, i64 0, i64 0
  %135 = call i8* @strcpy(i8* %130, i8* %134) #4
  %136 = load i32, i32* %16, align 4
  %137 = add nsw i32 %136, 1
  %138 = sext i32 %137 to i64
  %139 = getelementptr inbounds [100 x i32], [100 x i32]* %5, i64 0, i64 %138
  %140 = load i32, i32* %139, align 4
  %141 = load i32, i32* %16, align 4
  %142 = sext i32 %141 to i64
  %143 = getelementptr inbounds [100 x i32], [100 x i32]* %5, i64 0, i64 %142
  store i32 %140, i32* %143, align 4
  %144 = load i32, i32* %16, align 4
  %145 = sext i32 %144 to i64
  %146 = getelementptr inbounds [100 x [100 x i8]], [100 x [100 x i8]]* %8, i64 0, i64 %145
  %147 = getelementptr inbounds [100 x i8], [100 x i8]* %146, i64 0, i64 0
  %148 = load i32, i32* %16, align 4
  %149 = add nsw i32 %148, 1
  %150 = sext i32 %149 to i64
  %151 = getelementptr inbounds [100 x [100 x i8]], [100 x [100 x i8]]* %8, i64 0, i64 %150
  %152 = getelementptr inbounds [100 x i8], [100 x i8]* %151, i64 0, i64 0
  %153 = call i8* @strcpy(i8* %147, i8* %152) #4
  %154 = load i32, i32* %7, align 4
  %155 = load i32, i32* %16, align 4
  %156 = add nsw i32 %155, 1
  %157 = sext i32 %156 to i64
  %158 = getelementptr inbounds [100 x i32], [100 x i32]* %5, i64 0, i64 %157
  store i32 %154, i32* %158, align 4
  %159 = load i32, i32* %16, align 4
  %160 = add nsw i32 %159, 1
  %161 = sext i32 %160 to i64
  %162 = getelementptr inbounds [100 x [100 x i8]], [100 x [100 x i8]]* %8, i64 0, i64 %161
  %163 = getelementptr inbounds [100 x i8], [100 x i8]* %162, i64 0, i64 0
  %164 = load i32, i32* %16, align 4
  %165 = sext i32 %164 to i64
  %166 = getelementptr inbounds [100 x [100 x i8]], [100 x [100 x i8]]* %11, i64 0, i64 %165
  %167 = getelementptr inbounds [100 x i8], [100 x i8]* %166, i64 0, i64 0
  %168 = call i8* @strcpy(i8* %163, i8* %167) #4
  br label %169

169:                                              ; preds = %122, %111
  br label %170

170:                                              ; preds = %169
  %171 = load i32, i32* %16, align 4
  %172 = add nsw i32 %171, 1
  store i32 %172, i32* %16, align 4
  br label %104

173:                                              ; preds = %104
  br label %174

174:                                              ; preds = %173
  %175 = load i32, i32* %15, align 4
  %176 = add nsw i32 %175, 1
  store i32 %176, i32* %15, align 4
  br label %98

177:                                              ; preds = %98
  store i32 0, i32* %17, align 4
  br label %178

178:                                              ; preds = %188, %177
  %179 = load i32, i32* %17, align 4
  %180 = load i32, i32* %3, align 4
  %181 = icmp slt i32 %179, %180
  br i1 %181, label %182, label %191

182:                                              ; preds = %178
  %183 = load i32, i32* %17, align 4
  %184 = sext i32 %183 to i64
  %185 = getelementptr inbounds [100 x [100 x i8]], [100 x [100 x i8]]* %8, i64 0, i64 %184
  %186 = getelementptr inbounds [100 x i8], [100 x i8]* %185, i64 0, i64 0
  %187 = call i32 (i8*, ...) @printf(i8* getelementptr inbounds ([4 x i8], [4 x i8]* @.str.2, i64 0, i64 0), i8* %186)
  br label %188

188:                                              ; preds = %182
  %189 = load i32, i32* %17, align 4
  %190 = add nsw i32 %189, 1
  store i32 %190, i32* %17, align 4
  br label %178

191:                                              ; preds = %178
  store i32 0, i32* %18, align 4
  br label %192

192:                                              ; preds = %202, %191
  %193 = load i32, i32* %18, align 4
  %194 = load i32, i32* %4, align 4
  %195 = icmp slt i32 %193, %194
  br i1 %195, label %196, label %205

196:                                              ; preds = %192
  %197 = load i32, i32* %18, align 4
  %198 = sext i32 %197 to i64
  %199 = getelementptr inbounds [100 x [100 x i8]], [100 x [100 x i8]]* %9, i64 0, i64 %198
  %200 = getelementptr inbounds [100 x i8], [100 x i8]* %199, i64 0, i64 0
  %201 = call i32 (i8*, ...) @printf(i8* getelementptr inbounds ([4 x i8], [4 x i8]* @.str.2, i64 0, i64 0), i8* %200)
  br label %202

202:                                              ; preds = %196
  %203 = load i32, i32* %18, align 4
  %204 = add nsw i32 %203, 1
  store i32 %204, i32* %18, align 4
  br label %192

205:                                              ; preds = %192
  %206 = call i32 @getchar()
  %207 = call i32 @getchar()
  %208 = load i32, i32* %1, align 4
  ret i32 %208
}

; Function Attrs: argmemonly nounwind willreturn
declare void @llvm.memset.p0i8.i64(i8* nocapture writeonly, i8, i64, i1 immarg) #1

declare dso_local i32 @__isoc99_scanf(i8*, ...) #2

; Function Attrs: nounwind
declare dso_local i8* @strcpy(i8*, i8*) #3

declare dso_local i32 @printf(i8*, ...) #2

declare dso_local i32 @getchar() #2


!llvm.module.flags = !{!0}
!llvm.ident = !{!1}

!0 = !{i32 1, !"wchar_size", i32 4}
!1 = !{!"clang version 10.0.0-4ubuntu1 "}
